; Function Attrs: nounwind uwtable
define dso_local noundef i64 @pg_replication_origin_advance(ptr noundef readonly captures(none) %0) local_unnamed_addr #0 {
  %2 = getelementptr inbounds nuw i8, ptr %0, i64 32
  %3 = load i64, ptr %2, align 8
  %4 = inttoptr i64 %3 to ptr
  %5 = tail call ptr @pg_detoast_datum_packed(ptr noundef %4) #10
  %6 = getelementptr inbounds nuw i8, ptr %0, i64 48
  %7 = load i64, ptr %6, align 8
  tail call fastcc void @replorigin_check_prerequisites(i1 noundef zeroext true, i1 noundef zeroext false)
  tail call void @LockRelationOid(i32 noundef 6000, i32 noundef 3) #10
  %8 = tail call ptr @text_to_cstring(ptr noundef %5) #10
  %9 = tail call zeroext i16 @replorigin_by_name(ptr noundef %8, i1 noundef zeroext false)
  tail call void @replorigin_advance(i16 noundef zeroext %9, i64 noundef %7, i64 noundef 0, i1 noundef zeroext true, i1 noundef zeroext true)
  tail call void @UnlockRelationOid(i32 noundef 6000, i32 noundef 3) #10
  ret i64 0
}